target datalayout = "e-m:e-p270:32:32-p271:32:32-p272:64:64-i64:64-i128:128-f80:128-n8:16:32:64-S128"
target triple = "x86_64-pc-linux-gnu"

%"class.boost::urls::detail::path_ref" = type { ptr, ptr, i64, i64, i64 }
%"class.boost::urls::segments_encoded_ref" = type { %"class.boost::urls::segments_encoded_base", ptr }
%"class.boost::urls::segments_encoded_base" = type { %"class.boost::urls::detail::path_ref" }
%"class.boost::urls::segments_encoded_base::iterator" = type { %"struct.boost::urls::detail::segments_iter_impl" }
%"struct.boost::urls::detail::segments_iter_impl" = type { [8 x i8], %"class.boost::urls::detail::path_ref", i64, i64, i64, i64, %"class.boost::urls::pct_string_view" }
%"class.boost::urls::pct_string_view" = type { %"class.boost::urls::grammar::string_view_base", i64 }
%"class.boost::urls::grammar::string_view_base" = type { %"class.boost::core::basic_string_view" }
%"class.boost::core::basic_string_view" = type { ptr, i64 }
%"struct.boost::urls::detail::any_segments_iter.base" = type <{ ptr, %"class.boost::core::basic_string_view", %"class.boost::core::basic_string_view", i32, i8 }>
%"struct.boost::urls::detail::segment_encoded_iter" = type { %"struct.boost::urls::detail::any_segments_iter.base", i8, [2 x i8] }

; Function Attrs: mustprogress nounwind uwtable
define linkonce_odr hidden noundef nonnull align 8 dereferenceable(104) ptr @_ZN5boost4urls21segments_encoded_base8iteratormmEv(ptr noundef nonnull align 8 dereferenceable(104) %0) #2 comdat align 2 {
  %2 = alloca ptr, align 8
  store ptr %0, ptr %2, align 8, !tbaa !3
  %3 = load ptr, ptr %2, align 8
  %4 = getelementptr inbounds nuw %"class.boost::urls::segments_encoded_base::iterator", ptr %3, i32 0, i32 0
  call void @_ZN5boost4urls6detail18segments_iter_impl9decrementEv(ptr noundef nonnull align 8 dereferenceable(104) %4) #14
  ret ptr %3
}

; Function Attrs: mustprogress nounwind uwtable
define linkonce_odr hidden noundef nonnull align 8 dereferenceable(104) ptr @_ZN5boost4urls21segments_encoded_base8iteratorppEv(ptr noundef nonnull align 8 dereferenceable(104) %0) #2 comdat align 2 {
  %2 = alloca ptr, align 8
  store ptr %0, ptr %2, align 8, !tbaa !3
  %3 = load ptr, ptr %2, align 8
  %4 = getelementptr inbounds nuw %"class.boost::urls::segments_encoded_base::iterator", ptr %3, i32 0, i32 0
  call void @_ZN5boost4urls6detail18segments_iter_impl9incrementEv(ptr noundef nonnull align 8 dereferenceable(104) %4) #14
  ret ptr %3
}

; Function Attrs: inlinehint mustprogress nounwind uwtable
define linkonce_odr hidden void @_ZSt9__advanceIN5boost4urls21segments_encoded_base8iteratorElEvRT_T0_St26bidirectional_iterator_tag(ptr noundef nonnull align 8 dereferenceable(104) %0, i64 noundef %1) #8 comdat {
  %3 = alloca ptr, align 8
  %4 = alloca i64, align 8
  store ptr %0, ptr %3, align 8, !tbaa !3
  store i64 %1, ptr %4, align 8, !tbaa !19
  %5 = load i64, ptr %4, align 8, !tbaa !19
  %6 = icmp sgt i64 %5, 0
  br i1 %6, label %7, label %16

7:                                                ; preds = %2
  br label %8

8:                                                ; preds = %12, %7
  %9 = load i64, ptr %4, align 8, !tbaa !19
  %10 = add nsw i64 %9, -1
  store i64 %10, ptr %4, align 8, !tbaa !19
  %11 = icmp ne i64 %9, 0
  br i1 %11, label %12, label %15

12:                                               ; preds = %8
  %13 = load ptr, ptr %3, align 8, !tbaa !3
  %14 = call noundef nonnull align 8 dereferenceable(104) ptr @_ZN5boost4urls21segments_encoded_base8iteratorppEv(ptr noundef nonnull align 8 dereferenceable(104) %13) #14
  br label %8, !llvm.loop !21

15:                                               ; preds = %8
  br label %25

16:                                               ; preds = %2
  br label %17

17:                                               ; preds = %21, %16
  %18 = load i64, ptr %4, align 8, !tbaa !19
  %19 = add nsw i64 %18, 1
  store i64 %19, ptr %4, align 8, !tbaa !19
  %20 = icmp ne i64 %18, 0
  br i1 %20, label %21, label %24

21:                                               ; preds = %17
  %22 = load ptr, ptr %3, align 8, !tbaa !3
  %23 = call noundef nonnull align 8 dereferenceable(104) ptr @_ZN5boost4urls21segments_encoded_base8iteratormmEv(ptr noundef nonnull align 8 dereferenceable(104) %22) #14
  br label %17, !llvm.loop !23

24:                                               ; preds = %17
  br label %25

25:                                               ; preds = %24, %15
  ret void
}

; Function Attrs: inlinehint mustprogress nounwind uwtable
define linkonce_odr hidden void @_ZSt19__iterator_categoryIN5boost4urls21segments_encoded_base8iteratorEENSt15iterator_traitsIT_E17iterator_categoryERKS5_(ptr noundef nonnull align 8 dereferenceable(104) %0) #8 comdat {
  %2 = alloca ptr, align 8
  store ptr %0, ptr %2, align 8, !tbaa !3
  ret void
}

; Function Attrs: inlinehint mustprogress uwtable
define linkonce_odr hidden void @_ZSt7advanceIN5boost4urls21segments_encoded_base8iteratorElEvRT_T0_(ptr noundef nonnull align 8 dereferenceable(104) %0, i64 noundef %1) #7 comdat {
  %3 = alloca ptr, align 8
  %4 = alloca i64, align 8
  %5 = alloca i64, align 8
  store ptr %0, ptr %3, align 8, !tbaa !3
  store i64 %1, ptr %4, align 8, !tbaa !19
  call void @llvm.lifetime.start.p0(i64 8, ptr %5) #14
  %6 = load i64, ptr %4, align 8, !tbaa !19
  store i64 %6, ptr %5, align 8, !tbaa !19
  %7 = load ptr, ptr %3, align 8, !tbaa !3
  %8 = load i64, ptr %5, align 8, !tbaa !19
  %9 = load ptr, ptr %3, align 8, !tbaa !3
  call void @_ZSt19__iterator_categoryIN5boost4urls21segments_encoded_base8iteratorEENSt15iterator_traitsIT_E17iterator_categoryERKS5_(ptr noundef nonnull align 8 dereferenceable(104) %9)
  call void @_ZSt9__advanceIN5boost4urls21segments_encoded_base8iteratorElEvRT_T0_St26bidirectional_iterator_tag(ptr noundef nonnull align 8 dereferenceable(104) %7, i64 noundef %8)
  call void @llvm.lifetime.end.p0(i64 8, ptr %5) #14
  ret void
}

; Function Attrs: mustprogress nounwind uwtable
define linkonce_odr hidden void @_ZN5boost4urls6detail17any_segments_iterD2Ev(ptr noundef nonnull align 8 dereferenceable(45) %0) unnamed_addr #2 comdat align 2 {
  %2 = alloca ptr, align 8
  store ptr %0, ptr %2, align 8, !tbaa !3
  ret void
}

; Function Attrs: mustprogress nounwind uwtable
define linkonce_odr hidden void @_ZN5boost4urls21segments_encoded_base8iteratorC2ERKNS0_6detail18segments_iter_implE(ptr noundef nonnull align 8 dereferenceable(104) %0, ptr noundef nonnull align 8 dereferenceable(104) %1) unnamed_addr #2 comdat align 2 {
  %3 = alloca ptr, align 8
  %4 = alloca ptr, align 8
  store ptr %0, ptr %3, align 8, !tbaa !3
  store ptr %1, ptr %4, align 8, !tbaa !3
  %5 = load ptr, ptr %3, align 8
  %6 = getelementptr inbounds nuw %"class.boost::urls::segments_encoded_base::iterator", ptr %5, i32 0, i32 0
  %7 = load ptr, ptr %4, align 8, !tbaa !3
  call void @llvm.memcpy.p0.p0.i64(ptr align 8 %6, ptr align 8 %7, i64 104, i1 false)
  ret void
}

; Function Attrs: inlinehint mustprogress uwtable
define linkonce_odr hidden void @_ZSt4nextIN5boost4urls21segments_encoded_base8iteratorEET_S4_NSt15iterator_traitsIS4_E15difference_typeE(ptr dead_on_unwind noalias writable sret(%"class.boost::urls::segments_encoded_base::iterator") align 8 %0, ptr noundef byval(%"class.boost::urls::segments_encoded_base::iterator") align 8 %1, i64 noundef %2) #7 comdat {
  %4 = alloca i64, align 8
  store i64 %2, ptr %4, align 8, !tbaa !19
  %5 = load i64, ptr %4, align 8, !tbaa !19
  call void @_ZSt7advanceIN5boost4urls21segments_encoded_base8iteratorElEvRT_T0_(ptr noundef nonnull align 8 dereferenceable(104) %1, i64 noundef %5)
  call void @llvm.memcpy.p0.p0.i64(ptr align 8 %0, ptr align 8 %1, i64 104, i1 false)
  ret void
}

; Function Attrs: mustprogress uwtable
define void @_ZN5boost4urls20segments_encoded_ref7replaceENS0_21segments_encoded_base8iteratorENS0_15pct_string_viewE(ptr dead_on_unwind noalias writable sret(%"class.boost::urls::segments_encoded_base::iterator") align 8 %0, ptr noundef nonnull align 8 dereferenceable(48) %1, ptr noundef byval(%"class.boost::urls::segments_encoded_base::iterator") align 8 %2, ptr noundef byval(%"class.boost::urls::pct_string_view") align 8 %3) #4 align 2 personality ptr @__gxx_personality_v0 {
  %5 = alloca ptr, align 8
  %6 = alloca %"struct.boost::urls::detail::segments_iter_impl", align 8
  %7 = alloca %"class.boost::urls::segments_encoded_base::iterator", align 8
  %8 = alloca %"class.boost::urls::segments_encoded_base::iterator", align 8
  %9 = alloca %"struct.boost::urls::detail::segment_encoded_iter", align 8
  %10 = alloca ptr, align 8
  %11 = alloca i32, align 4
  store ptr %1, ptr %5, align 8, !tbaa !3
  %12 = load ptr, ptr %5, align 8
  call void @llvm.lifetime.start.p0(i64 104, ptr %6) #14
  %13 = getelementptr inbounds nuw %"class.boost::urls::segments_encoded_ref", ptr %12, i32 0, i32 1
  %14 = load ptr, ptr %13, align 8, !tbaa !7
  %15 = getelementptr inbounds nuw %"class.boost::urls::segments_encoded_base::iterator", ptr %2, i32 0, i32 0
  call void @llvm.lifetime.start.p0(i64 104, ptr %7) #14
  call void @llvm.memcpy.p0.p0.i64(ptr align 8 %8, ptr align 8 %2, i64 104, i1 false)
  call void @_ZSt4nextIN5boost4urls21segments_encoded_base8iteratorEET_S4_NSt15iterator_traitsIS4_E15difference_typeE(ptr dead_on_unwind writable sret(%"class.boost::urls::segments_encoded_base::iterator") align 8 %7, ptr noundef byval(%"class.boost::urls::segments_encoded_base::iterator") align 8 %8, i64 noundef 1)
  %16 = getelementptr inbounds nuw %"class.boost::urls::segments_encoded_base::iterator", ptr %7, i32 0, i32 0
  call void @llvm.lifetime.start.p0(i64 48, ptr %9) #14
  call void @_ZN5boost4urls6detail20segment_encoded_iterC1ERKNS0_15pct_string_viewE(ptr noundef nonnull align 8 dereferenceable(46) %9, ptr noundef nonnull align 8 dereferenceable(24) %3) #14
  invoke void @_ZN5boost4urls8url_base13edit_segmentsERKNS0_6detail18segments_iter_implES5_ONS2_17any_segments_iterEi(ptr dead_on_unwind writable sret(%"struct.boost::urls::detail::segments_iter_impl") align 8 %6, ptr noundef nonnull align 8 dereferenceable(216) %14, ptr noundef nonnull align 8 dereferenceable(104) %15, ptr noundef nonnull align 8 dereferenceable(104) %16, ptr noundef nonnull align 8 dereferenceable(45) %9, i32 noundef -1)
          to label %17 unwind label %18

17:                                               ; preds = %4
  call void @_ZN5boost4urls21segments_encoded_base8iteratorC2ERKNS0_6detail18segments_iter_implE(ptr noundef nonnull align 8 dereferenceable(104) %0, ptr noundef nonnull align 8 dereferenceable(104) %6) #14
  call void @_ZN5boost4urls6detail17any_segments_iterD2Ev(ptr noundef nonnull align 8 dereferenceable(46) %9) #14
  call void @llvm.lifetime.end.p0(i64 48, ptr %9) #14
  call void @llvm.lifetime.end.p0(i64 104, ptr %7) #14
  call void @llvm.lifetime.end.p0(i64 104, ptr %6) #14
  ret void

18:                                               ; preds = %4
  %19 = landingpad { ptr, i32 }
          cleanup
  %20 = extractvalue { ptr, i32 } %19, 0
  store ptr %20, ptr %10, align 8
  %21 = extractvalue { ptr, i32 } %19, 1
  store i32 %21, ptr %11, align 4
  call void @_ZN5boost4urls6detail17any_segments_iterD2Ev(ptr noundef nonnull align 8 dereferenceable(46) %9) #14
  call void @llvm.lifetime.end.p0(i64 48, ptr %9) #14
  call void @llvm.lifetime.end.p0(i64 104, ptr %7) #14
  call void @llvm.lifetime.end.p0(i64 104, ptr %6) #14
  br label %22

22:                                               ; preds = %18
  %23 = load ptr, ptr %10, align 8
  %24 = load i32, ptr %11, align 4
  %25 = insertvalue { ptr, i32 } poison, ptr %23, 0
  %26 = insertvalue { ptr, i32 } %25, i32 %24, 1
  resume { ptr, i32 } %26
}